; Function Attrs: nounwind uwtable
define internal i32 @comparetup_datum_tiebreak(ptr noundef readonly captures(none) %0, ptr noundef readonly captures(none) %1, ptr noundef readonly captures(none) %2) #0 {
  %4 = getelementptr inbounds nuw i8, ptr %2, i64 80
  %5 = load ptr, ptr %4, align 8
  %6 = getelementptr inbounds nuw i8, ptr %5, i64 40
  %7 = load ptr, ptr %6, align 8
  %.not = icmp eq ptr %7, null
  br i1 %.not, label %ApplySortAbbrevFullComparator.exit, label %8

8:                                                ; preds = %3
  %9 = load ptr, ptr %0, align 8
  %10 = ptrtoint ptr %9 to i64
  %11 = getelementptr inbounds nuw i8, ptr %0, i64 16
  %12 = load i8, ptr %11, align 8, !range !4, !noundef !5
  %13 = trunc nuw i8 %12 to i1
  %14 = load ptr, ptr %1, align 8
  %15 = ptrtoint ptr %14 to i64
  %16 = getelementptr inbounds nuw i8, ptr %1, i64 16
  %17 = load i8, ptr %16, align 8, !range !4, !noundef !5
  %18 = trunc nuw i8 %17 to i1
  br i1 %13, label %19, label %24

19:                                               ; preds = %8
  br i1 %18, label %ApplySortAbbrevFullComparator.exit, label %20

20:                                               ; preds = %19
  %21 = getelementptr inbounds nuw i8, ptr %5, i64 13
  %22 = load i8, ptr %21, align 1, !range !4, !noundef !5
  %23 = trunc nuw i8 %22 to i1
  %..i = select i1 %23, i32 -1, i32 1
  br label %ApplySortAbbrevFullComparator.exit

24:                                               ; preds = %8
  br i1 %18, label %25, label %29

25:                                               ; preds = %24
  %26 = getelementptr inbounds nuw i8, ptr %5, i64 13
  %27 = load i8, ptr %26, align 1, !range !4, !noundef !5
  %28 = trunc nuw i8 %27 to i1
  %.12.i = select i1 %28, i32 1, i32 -1
  br label %ApplySortAbbrevFullComparator.exit

29:                                               ; preds = %24
  %30 = getelementptr inbounds nuw i8, ptr %5, i64 56
  %31 = load ptr, ptr %30, align 8
  %32 = tail call i32 %31(i64 noundef %10, i64 noundef %15, ptr noundef nonnull %5) #12
  %33 = getelementptr inbounds nuw i8, ptr %5, i64 12
  %34 = load i8, ptr %33, align 4, !range !4, !noundef !5
  %35 = trunc nuw i8 %34 to i1
  br i1 %35, label %36, label %ApplySortAbbrevFullComparator.exit

36:                                               ; preds = %29
  %37 = icmp slt i32 %32, 0
  %38 = sub i32 0, %32
  %39 = select i1 %37, i32 1, i32 %38
  br label %ApplySortAbbrevFullComparator.exit

ApplySortAbbrevFullComparator.exit:               ; preds = %36, %29, %25, %20, %19, %3
  %.0 = phi i32 [ 0, %3 ], [ %39, %36 ], [ %32, %29 ], [ 0, %19 ], [ %..i, %20 ], [ %.12.i, %25 ]
  ret i32 %.0
}